; Function Attrs: nounwind sspstrong uwtable
define internal i64 @path_s_getwd(i64 noundef %0) #0 {
  %2 = alloca i64, align 8
  call void @llvm.lifetime.start.p0(i64 8, ptr nonnull %2) #7
  %3 = load i64, ptr @rb_cDir, align 8, !tbaa !6
  %4 = load i64, ptr @id_getwd, align 8, !tbaa !6
  %5 = tail call i64 (i64, i64, i32, ...) @rb_funcall(i64 noundef %3, i64 noundef %4, i32 noundef 0) #7
  store i64 %5, ptr %2, align 8, !tbaa !6
  %6 = call i64 @rb_class_new_instance(i32 noundef 1, ptr noundef nonnull %2, i64 noundef %0) #7
  call void @llvm.lifetime.end.p0(i64 8, ptr nonnull %2) #7
  ret i64 %6
}